target datalayout = "e-m:e-p270:32:32-p271:32:32-p272:64:64-i64:64-i128:128-f80:128-n8:16:32:64-S128"
target triple = "x86_64-pc-linux-gnu"

%"class.llvm::SmallVectorBase" = type { ptr, i32, i32 }
%"class.llvm::ilist_node_impl.34" = type { %"class.llvm::ilist_node_base.35" }
%"class.llvm::ilist_node_base.35" = type { %"class.llvm::ilist_detail::node_base_prevnext.36" }
%"class.llvm::ilist_detail::node_base_prevnext.36" = type { ptr, ptr }
%"class.llvm::PredicateInfo" = type { ptr, %"class.llvm::iplist", %"class.llvm::DenseMap.39", %"class.llvm::SmallSet" }
%"class.llvm::iplist" = type { %"class.llvm::iplist_impl" }
%"class.llvm::iplist_impl" = type { %"class.llvm::simple_ilist" }
%"class.llvm::simple_ilist" = type { %"class.llvm::ilist_sentinel" }
%"class.llvm::ilist_sentinel" = type { %"class.llvm::ilist_node_impl.34" }
%"class.llvm::DenseMap.39" = type <{ ptr, i32, i32, i32, [4 x i8] }>
%"class.llvm::SmallSet" = type { %"class.llvm::SmallVector.42", %"class.std::set" }
%"class.llvm::SmallVector.42" = type { %"class.llvm::SmallVectorImpl.43", %"struct.llvm::SmallVectorStorage.46" }
%"class.llvm::SmallVectorImpl.43" = type { %"class.llvm::SmallVectorTemplateBase.44" }
%"class.llvm::SmallVectorTemplateBase.44" = type { %"class.llvm::SmallVectorTemplateCommon.45" }
%"class.llvm::SmallVectorTemplateCommon.45" = type { %"class.llvm::SmallVectorBase" }
%"struct.llvm::SmallVectorStorage.46" = type { [160 x i8] }
%"class.std::set" = type { %"class.std::_Rb_tree" }
%"class.std::_Rb_tree" = type { %"struct.std::_Rb_tree<llvm::AssertingVH<llvm::Function>, llvm::AssertingVH<llvm::Function>, std::_Identity<llvm::AssertingVH<llvm::Function>>, std::less<llvm::AssertingVH<llvm::Function>>>::_Rb_tree_impl" }
%"struct.std::_Rb_tree<llvm::AssertingVH<llvm::Function>, llvm::AssertingVH<llvm::Function>, std::_Identity<llvm::AssertingVH<llvm::Function>>, std::less<llvm::AssertingVH<llvm::Function>>>::_Rb_tree_impl" = type { [8 x i8], %"struct.std::_Rb_tree_header" }
%"struct.std::_Rb_tree_header" = type { %"struct.std::_Rb_tree_node_base", i64 }
%"struct.std::_Rb_tree_node_base" = type { i32, ptr, ptr, ptr }
%"class.llvm::PredicateInfoAnnotatedWriter" = type { %"class.llvm::AssemblyAnnotationWriter", ptr }
%"class.llvm::AssemblyAnnotationWriter" = type { ptr }

@_ZTVN4llvm24AssemblyAnnotationWriterE = external unnamed_addr constant { [9 x ptr] }, align 8

; Function Attrs: mustprogress nounwind uwtable
define linkonce_odr hidden void @_ZN4llvm24AssemblyAnnotationWriterC2Ev(ptr noundef nonnull align 8 dereferenceable(8) %0) unnamed_addr #1 comdat align 2 {
  %2 = alloca ptr, align 8
  store ptr %0, ptr %2, align 8
  %3 = load ptr, ptr %2, align 8
  store ptr getelementptr inbounds inrange(-16, 56) ({ [9 x ptr] }, ptr @_ZTVN4llvm24AssemblyAnnotationWriterE, i32 0, i32 0, i32 2), ptr %3, align 8
  ret void
}

; Function Attrs: mustprogress nounwind uwtable
define linkonce_odr hidden void @_ZN4llvm28PredicateInfoAnnotatedWriterD2Ev(ptr noundef nonnull align 8 dereferenceable(16) %0) unnamed_addr #1 comdat align 2 {
  %2 = alloca ptr, align 8
  store ptr %0, ptr %2, align 8
  %3 = load ptr, ptr %2, align 8
  call void @_ZN4llvm24AssemblyAnnotationWriterD2Ev(ptr noundef nonnull align 8 dereferenceable(8) %3) #2
  ret void
}

; Function Attrs: mustprogress nounwind uwtable
define linkonce_odr hidden void @_ZN4llvm28PredicateInfoAnnotatedWriterC2EPKNS_13PredicateInfoE(ptr noundef nonnull align 8 dereferenceable(16) %0, ptr noundef %1) unnamed_addr #1 comdat align 2 {
  %3 = alloca ptr, align 8
  %4 = alloca ptr, align 8
  store ptr %0, ptr %3, align 8
  store ptr %1, ptr %4, align 8
  %5 = load ptr, ptr %3, align 8
  call void @_ZN4llvm24AssemblyAnnotationWriterC2Ev(ptr noundef nonnull align 8 dereferenceable(8) %5) #2
  store ptr getelementptr inbounds inrange(-16, 56) ({ [9 x ptr] }, ptr @_ZTVN4llvm28PredicateInfoAnnotatedWriterE, i32 0, i32 0, i32 2), ptr %5, align 8
  %6 = getelementptr inbounds nuw %"class.llvm::PredicateInfoAnnotatedWriter", ptr %5, i32 0, i32 1
  %7 = load ptr, ptr %4, align 8
  store ptr %7, ptr %6, align 8
  ret void
}

; Function Attrs: mustprogress nounwind uwtable
define dso_local void @_ZNK4llvm13PredicateInfo4dumpEv(ptr noundef nonnull align 8 dereferenceable(272) %0) #1 align 2 {
  %2 = alloca ptr, align 8
  %3 = alloca %"class.llvm::PredicateInfoAnnotatedWriter", align 8
  store ptr %0, ptr %2, align 8
  %4 = load ptr, ptr %2, align 8
  call void @_ZN4llvm28PredicateInfoAnnotatedWriterC2EPKNS_13PredicateInfoE(ptr noundef nonnull align 8 dereferenceable(16) %3, ptr noundef %4)
  %5 = getelementptr inbounds nuw %"class.llvm::PredicateInfo", ptr %4, i32 0, i32 0
  %6 = load ptr, ptr %5, align 8
  %7 = call noundef nonnull align 8 dereferenceable(48) ptr @_ZN4llvm4dbgsEv()
  call void @_ZNK4llvm8Function5printERNS_11raw_ostreamEPNS_24AssemblyAnnotationWriterEbb(ptr noundef nonnull align 8 dereferenceable(136) %6, ptr noundef nonnull align 8 dereferenceable(48) %7, ptr noundef %3, i1 noundef zeroext false, i1 noundef zeroext false)
  call void @_ZN4llvm28PredicateInfoAnnotatedWriterD2Ev(ptr noundef nonnull align 8 dereferenceable(16) %3) #2
  ret void
}