; Function Attrs: mustprogress nounwind uwtable
define dso_local void @_ZNK4llvm13PredicateInfo4dumpEv(ptr noundef nonnull align 8 dereferenceable(272) %0) local_unnamed_addr #0 align 2 {
  %2 = alloca %"class.llvm::PredicateInfoAnnotatedWriter", align 8
  store ptr getelementptr inbounds inrange(-16, 56) (i8, ptr @_ZTVN4llvm28PredicateInfoAnnotatedWriterE, i64 16), ptr %2, align 8
  %3 = getelementptr inbounds nuw i8, ptr %2, i64 8
  store ptr %0, ptr %3, align 8
  %4 = load ptr, ptr %0, align 8
  %5 = tail call noundef nonnull align 8 dereferenceable(48) ptr @_ZN4llvm4dbgsEv() #19
  call void @_ZNK4llvm8Function5printERNS_11raw_ostreamEPNS_24AssemblyAnnotationWriterEbb(ptr noundef nonnull align 8 dereferenceable(136) %4, ptr noundef nonnull align 8 dereferenceable(48) %5, ptr noundef nonnull %2, i1 noundef zeroext false, i1 noundef zeroext false) #19
  call void @_ZN4llvm24AssemblyAnnotationWriterD2Ev(ptr noundef nonnull align 8 dereferenceable(8) %2) #19
  ret void
}